target datalayout = "e-m:e-p270:32:32-p271:32:32-p272:64:64-i64:64-i128:128-f80:128-n8:16:32:64-S128"
target triple = "x86_64-pc-linux-gnu"

%struct.ForEachState = type { ptr, i32 }
%struct.List = type { i32, i32, i32, ptr, [0 x %union.ListCell] }
%union.ListCell = type { ptr }
%struct.OpFamilyMember = type { i8, i32, i32, i32, i32, i32, i8, i8, i32 }

; Function Attrs: nounwind uwtable
define dso_local void @hashadjustmembers(i32 noundef %0, i32 noundef %1, ptr noundef %2, ptr noundef %3) #0 {
  %5 = alloca i32, align 4
  %6 = alloca i32, align 4
  %7 = alloca ptr, align 8
  %8 = alloca ptr, align 8
  %9 = alloca i32, align 4
  %10 = alloca ptr, align 8
  %11 = alloca %struct.ForEachState, align 8
  %12 = alloca ptr, align 8
  store i32 %0, ptr %5, align 4
  store i32 %1, ptr %6, align 4
  store ptr %2, ptr %7, align 8
  store ptr %3, ptr %8, align 8
  call void @llvm.lifetime.start.p0(i64 4, ptr %9) #6
  call void @llvm.lifetime.start.p0(i64 8, ptr %10) #6
  %13 = load i32, ptr %6, align 4
  %14 = icmp ne i32 %13, 0
  br i1 %14, label %15, label %18

15:                                               ; preds = %4
  call void @CommandCounterIncrement()
  %16 = load i32, ptr %6, align 4
  %17 = call i32 @get_opclass_input_type(i32 noundef %16)
  store i32 %17, ptr %9, align 4
  br label %19

18:                                               ; preds = %4
  store i32 0, ptr %9, align 4
  br label %19

19:                                               ; preds = %18, %15
  call void @llvm.lifetime.start.p0(i64 16, ptr %11) #6
  %20 = getelementptr inbounds nuw %struct.ForEachState, ptr %11, i32 0, i32 0
  %21 = load ptr, ptr %7, align 8
  %22 = load ptr, ptr %8, align 8
  %23 = call ptr @list_concat_copy(ptr noundef %21, ptr noundef %22)
  store ptr %23, ptr %20, align 8
  %24 = getelementptr inbounds nuw %struct.ForEachState, ptr %11, i32 0, i32 1
  store i32 0, ptr %24, align 8
  %25 = getelementptr i8, ptr %11, i64 12
  call void @llvm.memset.p0.i64(ptr align 4 %25, i8 0, i64 4, i1 false)
  br label %26

26:                                               ; preds = %123, %19
  %27 = getelementptr inbounds nuw %struct.ForEachState, ptr %11, i32 0, i32 0
  %28 = load ptr, ptr %27, align 8
  %29 = icmp ne ptr %28, null
  br i1 %29, label %30, label %47

30:                                               ; preds = %26
  %31 = getelementptr inbounds nuw %struct.ForEachState, ptr %11, i32 0, i32 1
  %32 = load i32, ptr %31, align 8
  %33 = getelementptr inbounds nuw %struct.ForEachState, ptr %11, i32 0, i32 0
  %34 = load ptr, ptr %33, align 8
  %35 = getelementptr inbounds nuw %struct.List, ptr %34, i32 0, i32 1
  %36 = load i32, ptr %35, align 4
  %37 = icmp slt i32 %32, %36
  br i1 %37, label %38, label %47

38:                                               ; preds = %30
  %39 = getelementptr inbounds nuw %struct.ForEachState, ptr %11, i32 0, i32 0
  %40 = load ptr, ptr %39, align 8
  %41 = getelementptr inbounds nuw %struct.List, ptr %40, i32 0, i32 3
  %42 = load ptr, ptr %41, align 8
  %43 = getelementptr inbounds nuw %struct.ForEachState, ptr %11, i32 0, i32 1
  %44 = load i32, ptr %43, align 8
  %45 = sext i32 %44 to i64
  %46 = getelementptr inbounds %union.ListCell, ptr %42, i64 %45
  store ptr %46, ptr %10, align 8
  br label %48

47:                                               ; preds = %30, %26
  store ptr null, ptr %10, align 8
  br label %48

48:                                               ; preds = %47, %38
  %49 = phi i32 [ 1, %38 ], [ 0, %47 ]
  %50 = icmp ne i32 %49, 0
  br i1 %50, label %52, label %51

51:                                               ; preds = %48
  call void @llvm.lifetime.end.p0(i64 16, ptr %11) #6
  br label %127

52:                                               ; preds = %48
  call void @llvm.lifetime.start.p0(i64 8, ptr %12) #6
  %53 = load ptr, ptr %10, align 8
  %54 = load ptr, ptr %53, align 8
  store ptr %54, ptr %12, align 8
  %55 = load ptr, ptr %12, align 8
  %56 = getelementptr inbounds nuw %struct.OpFamilyMember, ptr %55, i32 0, i32 0
  %57 = load i8, ptr %56, align 4, !range !4, !noundef !5
  %58 = trunc i8 %57 to i1
  br i1 %58, label %59, label %72

59:                                               ; preds = %52
  %60 = load ptr, ptr %12, align 8
  %61 = getelementptr inbounds nuw %struct.OpFamilyMember, ptr %60, i32 0, i32 2
  %62 = load i32, ptr %61, align 4
  %63 = icmp ne i32 %62, 1
  br i1 %63, label %64, label %72

64:                                               ; preds = %59
  %65 = load ptr, ptr %12, align 8
  %66 = getelementptr inbounds nuw %struct.OpFamilyMember, ptr %65, i32 0, i32 6
  store i8 0, ptr %66, align 4
  %67 = load ptr, ptr %12, align 8
  %68 = getelementptr inbounds nuw %struct.OpFamilyMember, ptr %67, i32 0, i32 7
  store i8 1, ptr %68, align 1
  %69 = load i32, ptr %5, align 4
  %70 = load ptr, ptr %12, align 8
  %71 = getelementptr inbounds nuw %struct.OpFamilyMember, ptr %70, i32 0, i32 8
  store i32 %69, ptr %71, align 4
  br label %122

72:                                               ; preds = %59, %52
  %73 = load ptr, ptr %12, align 8
  %74 = getelementptr inbounds nuw %struct.OpFamilyMember, ptr %73, i32 0, i32 3
  %75 = load i32, ptr %74, align 4
  %76 = load ptr, ptr %12, align 8
  %77 = getelementptr inbounds nuw %struct.OpFamilyMember, ptr %76, i32 0, i32 4
  %78 = load i32, ptr %77, align 4
  %79 = icmp ne i32 %75, %78
  br i1 %79, label %80, label %88

80:                                               ; preds = %72
  %81 = load ptr, ptr %12, align 8
  %82 = getelementptr inbounds nuw %struct.OpFamilyMember, ptr %81, i32 0, i32 6
  store i8 0, ptr %82, align 4
  %83 = load ptr, ptr %12, align 8
  %84 = getelementptr inbounds nuw %struct.OpFamilyMember, ptr %83, i32 0, i32 7
  store i8 1, ptr %84, align 1
  %85 = load i32, ptr %5, align 4
  %86 = load ptr, ptr %12, align 8
  %87 = getelementptr inbounds nuw %struct.OpFamilyMember, ptr %86, i32 0, i32 8
  store i32 %85, ptr %87, align 4
  br label %121

88:                                               ; preds = %72
  %89 = load ptr, ptr %12, align 8
  %90 = getelementptr inbounds nuw %struct.OpFamilyMember, ptr %89, i32 0, i32 3
  %91 = load i32, ptr %90, align 4
  %92 = load i32, ptr %9, align 4
  %93 = icmp ne i32 %91, %92
  br i1 %93, label %94, label %101

94:                                               ; preds = %88
  %95 = load ptr, ptr %12, align 8
  %96 = getelementptr inbounds nuw %struct.OpFamilyMember, ptr %95, i32 0, i32 3
  %97 = load i32, ptr %96, align 4
  store i32 %97, ptr %9, align 4
  %98 = load i32, ptr %5, align 4
  %99 = load i32, ptr %9, align 4
  %100 = call i32 @opclass_for_family_datatype(i32 noundef 405, i32 noundef %98, i32 noundef %99)
  store i32 %100, ptr %6, align 4
  br label %101

101:                                              ; preds = %94, %88
  %102 = load i32, ptr %6, align 4
  %103 = icmp ne i32 %102, 0
  br i1 %103, label %104, label %112

104:                                              ; preds = %101
  %105 = load ptr, ptr %12, align 8
  %106 = getelementptr inbounds nuw %struct.OpFamilyMember, ptr %105, i32 0, i32 6
  store i8 1, ptr %106, align 4
  %107 = load ptr, ptr %12, align 8
  %108 = getelementptr inbounds nuw %struct.OpFamilyMember, ptr %107, i32 0, i32 7
  store i8 0, ptr %108, align 1
  %109 = load i32, ptr %6, align 4
  %110 = load ptr, ptr %12, align 8
  %111 = getelementptr inbounds nuw %struct.OpFamilyMember, ptr %110, i32 0, i32 8
  store i32 %109, ptr %111, align 4
  br label %120

112:                                              ; preds = %101
  %113 = load ptr, ptr %12, align 8
  %114 = getelementptr inbounds nuw %struct.OpFamilyMember, ptr %113, i32 0, i32 6
  store i8 0, ptr %114, align 4
  %115 = load ptr, ptr %12, align 8
  %116 = getelementptr inbounds nuw %struct.OpFamilyMember, ptr %115, i32 0, i32 7
  store i8 1, ptr %116, align 1
  %117 = load i32, ptr %5, align 4
  %118 = load ptr, ptr %12, align 8
  %119 = getelementptr inbounds nuw %struct.OpFamilyMember, ptr %118, i32 0, i32 8
  store i32 %117, ptr %119, align 4
  br label %120

120:                                              ; preds = %112, %104
  br label %121

121:                                              ; preds = %120, %80
  br label %122

122:                                              ; preds = %121, %64
  call void @llvm.lifetime.end.p0(i64 8, ptr %12) #6
  br label %123

123:                                              ; preds = %122
  %124 = getelementptr inbounds nuw %struct.ForEachState, ptr %11, i32 0, i32 1
  %125 = load i32, ptr %124, align 8
  %126 = add i32 %125, 1
  store i32 %126, ptr %124, align 8
  br label %26, !llvm.loop !10

127:                                              ; preds = %51
  call void @llvm.lifetime.end.p0(i64 8, ptr %10) #6
  call void @llvm.lifetime.end.p0(i64 4, ptr %9) #6
  ret void
}