; Function Attrs: nounwind uwtable
define dso_local void @hashadjustmembers(i32 noundef %0, i32 noundef %1, ptr noundef %2, ptr noundef %3) local_unnamed_addr #0 {
  %.not = icmp eq i32 %1, 0
  br i1 %.not, label %7, label %5

5:                                                ; preds = %4
  tail call void @CommandCounterIncrement() #4
  %6 = tail call i32 @get_opclass_input_type(i32 noundef %1) #4
  br label %7

7:                                                ; preds = %4, %5
  %.034 = phi i32 [ %6, %5 ], [ 0, %4 ]
  %8 = tail call ptr @list_concat_copy(ptr noundef %2, ptr noundef %3) #4
  %9 = getelementptr inbounds nuw i8, ptr %8, i64 4
  %.not41 = icmp eq ptr %8, null
  br i1 %.not41, label %._crit_edge, label %.lr.ph

.lr.ph:                                           ; preds = %7
  %10 = getelementptr inbounds nuw i8, ptr %8, i64 16
  %11 = load i32, ptr %9, align 4
  %12 = icmp sgt i32 %11, 0
  br i1 %12, label %.lr.ph56, label %._crit_edge

._crit_edge:                                      ; preds = %43, %.lr.ph, %7
  ret void

.lr.ph56:                                         ; preds = %.lr.ph, %43
  %indvars.iv = phi i64 [ %indvars.iv.next, %43 ], [ 0, %.lr.ph ]
  %.1355054 = phi i32 [ %.236, %43 ], [ %.034, %.lr.ph ]
  %.05153 = phi i32 [ %.1, %43 ], [ %1, %.lr.ph ]
  %13 = load ptr, ptr %10, align 8
  %14 = getelementptr inbounds nuw %union.ListCell, ptr %13, i64 %indvars.iv
  %15 = load ptr, ptr %14, align 8
  %16 = load i8, ptr %15, align 4, !range !7, !noundef !8
  %17 = trunc nuw i8 %16 to i1
  br i1 %17, label %18, label %25

18:                                               ; preds = %.lr.ph56
  %19 = getelementptr inbounds nuw i8, ptr %15, i64 8
  %20 = load i32, ptr %19, align 4
  %.not43 = icmp eq i32 %20, 1
  br i1 %.not43, label %25, label %21

21:                                               ; preds = %18
  %22 = getelementptr inbounds nuw i8, ptr %15, i64 24
  store i8 0, ptr %22, align 4
  %23 = getelementptr inbounds nuw i8, ptr %15, i64 25
  store i8 1, ptr %23, align 1
  %24 = getelementptr inbounds nuw i8, ptr %15, i64 28
  store i32 %0, ptr %24, align 4
  br label %43

25:                                               ; preds = %18, %.lr.ph56
  %26 = getelementptr inbounds nuw i8, ptr %15, i64 12
  %27 = load i32, ptr %26, align 4
  %28 = getelementptr inbounds nuw i8, ptr %15, i64 16
  %29 = load i32, ptr %28, align 4
  %.not44 = icmp eq i32 %27, %29
  br i1 %.not44, label %34, label %30

30:                                               ; preds = %25
  %31 = getelementptr inbounds nuw i8, ptr %15, i64 24
  store i8 0, ptr %31, align 4
  %32 = getelementptr inbounds nuw i8, ptr %15, i64 25
  store i8 1, ptr %32, align 1
  %33 = getelementptr inbounds nuw i8, ptr %15, i64 28
  store i32 %0, ptr %33, align 4
  br label %43

34:                                               ; preds = %25
  %.not45 = icmp eq i32 %27, %.1355054
  br i1 %.not45, label %37, label %35

35:                                               ; preds = %34
  %36 = tail call i32 @opclass_for_family_datatype(i32 noundef 405, i32 noundef %0, i32 noundef %27) #4
  br label %37

37:                                               ; preds = %35, %34
  %.3 = phi i32 [ %27, %35 ], [ %.1355054, %34 ]
  %.2 = phi i32 [ %36, %35 ], [ %.05153, %34 ]
  %.not46 = icmp eq i32 %.2, 0
  %38 = getelementptr inbounds nuw i8, ptr %15, i64 24
  %39 = getelementptr inbounds nuw i8, ptr %15, i64 25
  %40 = getelementptr inbounds nuw i8, ptr %15, i64 28
  br i1 %.not46, label %42, label %41

41:                                               ; preds = %37
  store i8 1, ptr %38, align 4
  store i8 0, ptr %39, align 1
  store i32 %.2, ptr %40, align 4
  br label %43

42:                                               ; preds = %37
  store i8 0, ptr %38, align 4
  store i8 1, ptr %39, align 1
  store i32 %0, ptr %40, align 4
  br label %43

43:                                               ; preds = %30, %42, %41, %21
  %.236 = phi i32 [ %.1355054, %21 ], [ %.1355054, %30 ], [ %.3, %41 ], [ %.3, %42 ]
  %.1 = phi i32 [ %.05153, %21 ], [ %.05153, %30 ], [ %.2, %41 ], [ 0, %42 ]
  %indvars.iv.next = add nuw nsw i64 %indvars.iv, 1
  %44 = load i32, ptr %9, align 4
  %45 = sext i32 %44 to i64
  %46 = icmp slt i64 %indvars.iv.next, %45
  br i1 %46, label %.lr.ph56, label %._crit_edge
}